; ModuleID = 'source-C-CXX/44/2652.c'
source_filename = "source-C-CXX/44/2652.c"
target datalayout = "e-m:e-p270:32:32-p271:32:32-p272:64:64-i64:64-f80:128-n8:16:32:64-S128"
target triple = "x86_64-pc-linux-gnu"

@.str = private unnamed_addr constant [3 x i8] c"%s\00", align 1
@.str.1 = private unnamed_addr constant [3 x i8] c"%d\00", align 1

; Function Attrs: nofree nounwind sspstrong uwtable
define dso_local i32 @main() local_unnamed_addr #0 {
  %1 = alloca [55 x i8], align 16
  %2 = alloca [55 x i8], align 16
  %3 = getelementptr inbounds [55 x i8], [55 x i8]* %1, i64 0, i64 0
  call void @llvm.lifetime.start.p0i8(i64 55, i8* nonnull %3) #4
  %4 = getelementptr inbounds [55 x i8], [55 x i8]* %2, i64 0, i64 0
  call void @llvm.lifetime.start.p0i8(i64 55, i8* nonnull %4) #4
  %5 = call i32 (i8*, ...) @__isoc99_scanf(i8* getelementptr inbounds ([3 x i8], [3 x i8]* @.str, i64 0, i64 0), i8* nonnull %3)
  %6 = call i32 (i8*, ...) @__isoc99_scanf(i8* getelementptr inbounds ([3 x i8], [3 x i8]* @.str, i64 0, i64 0), i8* nonnull %4)
  %7 = call i64 @strlen(i8* noundef nonnull %4) #5
  %8 = load i8, i8* %3, align 16
  %9 = icmp eq i64 %7, 0
  br i1 %9, label %46, label %10

10:                                               ; preds = %0
  %11 = getelementptr inbounds [55 x i8], [55 x i8]* %1, i64 0, i64 0
  %12 = load i8, i8* %11, align 16
  %13 = icmp eq i8 %12, %8
  br label %14

14:                                               ; preds = %10, %40
  %15 = phi i64 [ %42, %40 ], [ -1, %10 ]
  %16 = phi i64 [ %41, %40 ], [ 0, %10 ]
  %17 = getelementptr inbounds [55 x i8], [55 x i8]* %2, i64 0, i64 %16
  %18 = load i8, i8* %17, align 1, !tbaa !5
  %19 = icmp eq i8 %8, %18
  br i1 %19, label %20, label %40

20:                                               ; preds = %14
  %21 = call i64 @strlen(i8* noundef nonnull %3) #5
  %22 = add nsw i64 %16, -1
  %23 = add i64 %22, %21
  %24 = icmp ugt i64 %23, %16
  br i1 %24, label %25, label %38

25:                                               ; preds = %20
  %26 = add i64 %21, %15
  br i1 %13, label %27, label %40

27:                                               ; preds = %25, %31
  %28 = phi i64 [ %29, %31 ], [ %16, %25 ]
  %29 = add nuw i64 %28, 1
  %30 = icmp eq i64 %29, %26
  br i1 %30, label %38, label %31, !llvm.loop !8

31:                                               ; preds = %27
  %32 = getelementptr inbounds [55 x i8], [55 x i8]* %2, i64 0, i64 %29
  %33 = load i8, i8* %32, align 1, !tbaa !5
  %34 = sub nuw nsw i64 %29, %16
  %35 = getelementptr inbounds [55 x i8], [55 x i8]* %1, i64 0, i64 %34
  %36 = load i8, i8* %35, align 1, !tbaa !5
  %37 = icmp eq i8 %36, %33
  br i1 %37, label %27, label %40

38:                                               ; preds = %27, %20
  %39 = icmp eq i64 %16, 0
  br i1 %39, label %40, label %44

40:                                               ; preds = %31, %25, %14, %38
  %41 = add nuw i64 %16, 1
  %42 = add nsw i64 %15, 1
  %43 = icmp eq i64 %41, %7
  br i1 %43, label %46, label %14, !llvm.loop !10

44:                                               ; preds = %38
  %45 = trunc i64 %16 to i32
  br label %46

46:                                               ; preds = %40, %44, %0
  %47 = phi i32 [ 0, %0 ], [ %45, %44 ], [ 0, %40 ]
  %48 = call i32 (i8*, ...) @printf(i8* nonnull dereferenceable(1) getelementptr inbounds ([3 x i8], [3 x i8]* @.str.1, i64 0, i64 0), i32 %47)
  %49 = call i32 (i8*, ...) @__isoc99_scanf(i8* getelementptr inbounds ([3 x i8], [3 x i8]* @.str, i64 0, i64 0), i8* nonnull %3)
  call void @llvm.lifetime.end.p0i8(i64 55, i8* nonnull %4) #4
  call void @llvm.lifetime.end.p0i8(i64 55, i8* nonnull %3) #4
  ret i32 0
}

; Function Attrs: argmemonly mustprogress nofree nosync nounwind willreturn
declare void @llvm.lifetime.start.p0i8(i64 immarg, i8* nocapture) #1

; Function Attrs: nofree nounwind
declare noundef i32 @__isoc99_scanf(i8* nocapture noundef readonly, ...) local_unnamed_addr #2

; Function Attrs: argmemonly mustprogress nofree nounwind readonly willreturn
declare i64 @strlen(i8* nocapture) local_unnamed_addr #3

; Function Attrs: nofree nounwind
declare noundef i32 @printf(i8* nocapture noundef readonly, ...) local_unnamed_addr #2

; Function Attrs: argmemonly mustprogress nofree nosync nounwind willreturn
declare void @llvm.lifetime.end.p0i8(i64 immarg, i8* nocapture) #1


!llvm.module.flags = !{!0, !1, !2, !3}
!llvm.ident = !{!4}

!0 = !{i32 1, !"wchar_size", i32 4}
!1 = !{i32 7, !"PIC Level", i32 2}
!2 = !{i32 7, !"PIE Level", i32 2}
!3 = !{i32 7, !"uwtable", i32 1}
!4 = !{!"clang version 13.0.0"}
!5 = !{!6, !6, i64 0}
!6 = !{!"omnipotent char", !7, i64 0}
!7 = !{!"Simple C/C++ TBAA"}
!8 = distinct !{!8, !9}
!9 = !{!"llvm.loop.mustprogress"}
!10 = distinct !{!10, !9}
